; Function Attrs: mustprogress nofree norecurse nosync nounwind willreturn memory(read, argmem: readwrite, inaccessiblemem: none) uwtable
define void @_ZN8QuantLib21TwoAssetBarrierOption9argumentsC2Ev(ptr nocapture noundef nonnull writeonly align 8 dereferenceable(56) %this, ptr nocapture noundef readonly %vtt) unnamed_addr #12 align 2 personality ptr @__gxx_personality_v0 {
invoke.cont:
  %0 = getelementptr inbounds i8, ptr %vtt, i64 8
  %1 = load ptr, ptr %0, align 8
  store ptr %1, ptr %this, align 8, !tbaa !33
  %2 = getelementptr inbounds i8, ptr %vtt, i64 16
  %3 = load ptr, ptr %2, align 8
  %vbase.offset.ptr.i = getelementptr i8, ptr %1, i64 -40
  %vbase.offset.i = load i64, ptr %vbase.offset.ptr.i, align 8
  %add.ptr.i = getelementptr inbounds i8, ptr %this, i64 %vbase.offset.i
  store ptr %3, ptr %add.ptr.i, align 8, !tbaa !33
  %payoff.i = getelementptr inbounds nuw i8, ptr %this, i64 8
  tail call void @llvm.memset.p0.i64(ptr noundef nonnull align 8 dereferenceable(32) %payoff.i, i8 0, i64 32, i1 false)
  %4 = load ptr, ptr %vtt, align 8
  store ptr %4, ptr %this, align 8, !tbaa !33
  %5 = getelementptr inbounds i8, ptr %vtt, i64 24
  %6 = load ptr, ptr %5, align 8
  %vbase.offset.ptr = getelementptr i8, ptr %4, i64 -40
  %vbase.offset = load i64, ptr %vbase.offset.ptr, align 8
  %add.ptr = getelementptr inbounds i8, ptr %this, i64 %vbase.offset
  store ptr %6, ptr %add.ptr, align 8, !tbaa !33
  %barrierType = getelementptr inbounds nuw i8, ptr %this, i64 40
  store i32 -1, ptr %barrierType, align 8, !tbaa !64
  %barrier = getelementptr inbounds nuw i8, ptr %this, i64 48
  store double 0x47EFFFFFE0000000, ptr %barrier, align 8, !tbaa !67
  ret void
}